; Function Attrs: nounwind uwtable
define internal i32 @detect_proxy(ptr noundef %0) #0 {
  %2 = load i32, ptr getelementptr inbounds nuw (i8, ptr @prte_schizo_base_framework, i64 76), align 4, !tbaa !24
  %or.cond = icmp ult i32 %2, 64
  br i1 %or.cond, label %3, label %13

3:                                                ; preds = %1
  %4 = zext nneg i32 %2 to i64
  %5 = getelementptr inbounds nuw [0 x %struct.pmix_output_desc_t], ptr @pmix_output_info, i64 0, i64 %4, i32 2
  %6 = load i32, ptr %5, align 4, !tbaa !29
  %7 = icmp sgt i32 %6, 1
  br i1 %7, label %8, label %13

8:                                                ; preds = %3
  %9 = tail call ptr @prte_util_print_name_args(ptr noundef nonnull @prte_process_info) #14
  %10 = icmp eq ptr %0, null
  %11 = select i1 %10, ptr @.str.203, ptr %0
  %12 = load ptr, ptr @prte_tool_basename, align 8, !tbaa !3
  tail call void (i32, ptr, ...) @pmix_output(i32 noundef %2, ptr noundef nonnull @.str.201, ptr noundef %9, ptr noundef nonnull @.str.202, ptr noundef nonnull %11, ptr noundef %12) #14
  br label %13

13:                                               ; preds = %8, %3, %1
  %.not = icmp eq ptr %0, null
  br i1 %.not, label %17, label %14

14:                                               ; preds = %13
  %15 = tail call ptr @strstr(ptr noundef nonnull dereferenceable(1) %0, ptr noundef nonnull dereferenceable(1) @.str) #13
  %.not10 = icmp eq ptr %15, null
  %16 = load i32, ptr getelementptr inbounds nuw (i8, ptr @prte_mca_schizo_prte_component, i64 224), align 8
  %spec.select = select i1 %.not10, i32 0, i32 %16
  br label %24

17:                                               ; preds = %13
  %18 = tail call ptr @getenv(ptr noundef nonnull @.str.204) #14
  %.not9 = icmp eq ptr %18, null
  br i1 %.not9, label %22, label %19

19:                                               ; preds = %17
  %20 = tail call i32 @strcmp(ptr noundef nonnull dereferenceable(1) %18, ptr noundef nonnull dereferenceable(5) @.str) #13
  %21 = icmp eq i32 %20, 0
  %. = select i1 %21, i32 100, i32 0
  br label %24

22:                                               ; preds = %17
  %23 = load i32, ptr getelementptr inbounds nuw (i8, ptr @prte_mca_schizo_prte_component, i64 224), align 8, !tbaa !36
  br label %24

24:                                               ; preds = %14, %19, %22
  %.0 = phi i32 [ %23, %22 ], [ %., %19 ], [ %spec.select, %14 ]
  ret i32 %.0
}